; Function Attrs: nounwind uwtable
define i64 @Java_sun_nio_fs_LinuxNativeDispatcher_setmntent0(ptr noundef %0, ptr nocapture noundef readnone %1, i64 noundef %2, i64 noundef %3) local_unnamed_addr #0 {
  %5 = inttoptr i64 %2 to ptr
  %6 = inttoptr i64 %3 to ptr
  br label %7

7:                                                ; preds = %10, %4
  %8 = tail call ptr @setmntent(ptr noundef %5, ptr noundef %6) #5
  %9 = icmp eq ptr %8, null
  br i1 %9, label %10, label %.critedge7.loopexit

10:                                               ; preds = %7
  %11 = tail call ptr @__errno_location() #6
  %12 = load i32, ptr %11, align 4
  %13 = icmp eq i32 %12, 4
  br i1 %13, label %7, label %.critedge, !llvm.loop !6

.critedge:                                        ; preds = %10
  %14 = tail call ptr (ptr, ptr, ptr, ...) @JNU_NewObjectByName(ptr noundef %0, ptr noundef nonnull @.str.8, ptr noundef nonnull @.str.9, i32 noundef %12) #5
  %.not.i = icmp eq ptr %14, null
  br i1 %.not.i, label %.critedge7, label %15

15:                                               ; preds = %.critedge
  %16 = load ptr, ptr %0, align 8
  %17 = getelementptr inbounds i8, ptr %16, i64 104
  %18 = load ptr, ptr %17, align 8
  %19 = tail call i32 %18(ptr noundef nonnull %0, ptr noundef nonnull %14) #5
  br label %.critedge7

.critedge7.loopexit:                              ; preds = %7
  %20 = ptrtoint ptr %8 to i64
  br label %.critedge7

.critedge7:                                       ; preds = %.critedge7.loopexit, %15, %.critedge
  %21 = phi i64 [ %20, %.critedge7.loopexit ], [ 0, %15 ], [ 0, %.critedge ]
  ret i64 %21
}